
P11.elf:     file format elf32-avr

Sections:
Idx Name          Size      VMA       LMA       File off  Algn
  0 .data         000001a8  00800200  00000924  000009b8  2**0
                  CONTENTS, ALLOC, LOAD, DATA
  1 .text         00000924  00000000  00000000  00000094  2**1
                  CONTENTS, ALLOC, LOAD, READONLY, CODE
  2 .bss          0000009a  008003a8  008003a8  00000b60  2**0
                  ALLOC
  3 .comment      00000030  00000000  00000000  00000b60  2**0
                  CONTENTS, READONLY
  4 .note.gnu.avr.deviceinfo 00000040  00000000  00000000  00000b90  2**2
                  CONTENTS, READONLY
  5 .debug_aranges 00000148  00000000  00000000  00000bd0  2**0
                  CONTENTS, READONLY, DEBUGGING
  6 .debug_info   00001920  00000000  00000000  00000d18  2**0
                  CONTENTS, READONLY, DEBUGGING
  7 .debug_abbrev 00001145  00000000  00000000  00002638  2**0
                  CONTENTS, READONLY, DEBUGGING
  8 .debug_line   00000b90  00000000  00000000  0000377d  2**0
                  CONTENTS, READONLY, DEBUGGING
  9 .debug_frame  00000364  00000000  00000000  00004310  2**2
                  CONTENTS, READONLY, DEBUGGING
 10 .debug_str    00000765  00000000  00000000  00004674  2**0
                  CONTENTS, READONLY, DEBUGGING
 11 .debug_loc    00000a73  00000000  00000000  00004dd9  2**0
                  CONTENTS, READONLY, DEBUGGING
 12 .debug_ranges 000000f8  00000000  00000000  0000584c  2**0
                  CONTENTS, READONLY, DEBUGGING

Disassembly of section .text:

00000000 <__vectors>:
   0:	71 c0       	rjmp	.+226    	; 0xe4 <__ctors_end>
   2:	00 00       	nop
   4:	8e c0       	rjmp	.+284    	; 0x122 <__bad_interrupt>
   6:	00 00       	nop
   8:	8c c0       	rjmp	.+280    	; 0x122 <__bad_interrupt>
   a:	00 00       	nop
   c:	8a c0       	rjmp	.+276    	; 0x122 <__bad_interrupt>
   e:	00 00       	nop
  10:	88 c0       	rjmp	.+272    	; 0x122 <__bad_interrupt>
  12:	00 00       	nop
  14:	86 c0       	rjmp	.+268    	; 0x122 <__bad_interrupt>
  16:	00 00       	nop
  18:	84 c0       	rjmp	.+264    	; 0x122 <__bad_interrupt>
  1a:	00 00       	nop
  1c:	82 c0       	rjmp	.+260    	; 0x122 <__bad_interrupt>
  1e:	00 00       	nop
  20:	80 c0       	rjmp	.+256    	; 0x122 <__bad_interrupt>
  22:	00 00       	nop
  24:	7e c0       	rjmp	.+252    	; 0x122 <__bad_interrupt>
  26:	00 00       	nop
  28:	7c c0       	rjmp	.+248    	; 0x122 <__bad_interrupt>
  2a:	00 00       	nop
  2c:	7a c0       	rjmp	.+244    	; 0x122 <__bad_interrupt>
  2e:	00 00       	nop
  30:	78 c0       	rjmp	.+240    	; 0x122 <__bad_interrupt>
  32:	00 00       	nop
  34:	03 c2       	rjmp	.+1030   	; 0x43c <__vector_13>
  36:	00 00       	nop
  38:	74 c0       	rjmp	.+232    	; 0x122 <__bad_interrupt>
  3a:	00 00       	nop
  3c:	72 c0       	rjmp	.+228    	; 0x122 <__bad_interrupt>
  3e:	00 00       	nop
  40:	70 c0       	rjmp	.+224    	; 0x122 <__bad_interrupt>
  42:	00 00       	nop
  44:	6e c0       	rjmp	.+220    	; 0x122 <__bad_interrupt>
  46:	00 00       	nop
  48:	6c c0       	rjmp	.+216    	; 0x122 <__bad_interrupt>
  4a:	00 00       	nop
  4c:	6a c0       	rjmp	.+212    	; 0x122 <__bad_interrupt>
  4e:	00 00       	nop
  50:	68 c0       	rjmp	.+208    	; 0x122 <__bad_interrupt>
  52:	00 00       	nop
  54:	54 c1       	rjmp	.+680    	; 0x2fe <__vector_21>
  56:	00 00       	nop
  58:	64 c0       	rjmp	.+200    	; 0x122 <__bad_interrupt>
  5a:	00 00       	nop
  5c:	62 c0       	rjmp	.+196    	; 0x122 <__bad_interrupt>
  5e:	00 00       	nop
  60:	60 c0       	rjmp	.+192    	; 0x122 <__bad_interrupt>
  62:	00 00       	nop
  64:	6d c2       	rjmp	.+1242   	; 0x540 <__vector_25>
  66:	00 00       	nop
  68:	b2 c2       	rjmp	.+1380   	; 0x5ce <__vector_26>
  6a:	00 00       	nop
  6c:	5a c0       	rjmp	.+180    	; 0x122 <__bad_interrupt>
  6e:	00 00       	nop
  70:	58 c0       	rjmp	.+176    	; 0x122 <__bad_interrupt>
  72:	00 00       	nop
  74:	56 c0       	rjmp	.+172    	; 0x122 <__bad_interrupt>
  76:	00 00       	nop
  78:	54 c0       	rjmp	.+168    	; 0x122 <__bad_interrupt>
  7a:	00 00       	nop
  7c:	52 c0       	rjmp	.+164    	; 0x122 <__bad_interrupt>
  7e:	00 00       	nop
  80:	50 c0       	rjmp	.+160    	; 0x122 <__bad_interrupt>
  82:	00 00       	nop
  84:	4e c0       	rjmp	.+156    	; 0x122 <__bad_interrupt>
  86:	00 00       	nop
  88:	4c c0       	rjmp	.+152    	; 0x122 <__bad_interrupt>
  8a:	00 00       	nop
  8c:	4a c0       	rjmp	.+148    	; 0x122 <__bad_interrupt>
  8e:	00 00       	nop
  90:	48 c0       	rjmp	.+144    	; 0x122 <__bad_interrupt>
  92:	00 00       	nop
  94:	46 c0       	rjmp	.+140    	; 0x122 <__bad_interrupt>
  96:	00 00       	nop
  98:	44 c0       	rjmp	.+136    	; 0x122 <__bad_interrupt>
  9a:	00 00       	nop
  9c:	42 c0       	rjmp	.+132    	; 0x122 <__bad_interrupt>
  9e:	00 00       	nop
  a0:	40 c0       	rjmp	.+128    	; 0x122 <__bad_interrupt>
  a2:	00 00       	nop
  a4:	3e c0       	rjmp	.+124    	; 0x122 <__bad_interrupt>
  a6:	00 00       	nop
  a8:	3c c0       	rjmp	.+120    	; 0x122 <__bad_interrupt>
  aa:	00 00       	nop
  ac:	3a c0       	rjmp	.+116    	; 0x122 <__bad_interrupt>
  ae:	00 00       	nop
  b0:	38 c0       	rjmp	.+112    	; 0x122 <__bad_interrupt>
  b2:	00 00       	nop
  b4:	36 c0       	rjmp	.+108    	; 0x122 <__bad_interrupt>
  b6:	00 00       	nop
  b8:	34 c0       	rjmp	.+104    	; 0x122 <__bad_interrupt>
  ba:	00 00       	nop
  bc:	32 c0       	rjmp	.+100    	; 0x122 <__bad_interrupt>
  be:	00 00       	nop
  c0:	30 c0       	rjmp	.+96     	; 0x122 <__bad_interrupt>
  c2:	00 00       	nop
  c4:	2e c0       	rjmp	.+92     	; 0x122 <__bad_interrupt>
  c6:	00 00       	nop
  c8:	2c c0       	rjmp	.+88     	; 0x122 <__bad_interrupt>
  ca:	00 00       	nop
  cc:	2a c0       	rjmp	.+84     	; 0x122 <__bad_interrupt>
  ce:	00 00       	nop
  d0:	28 c0       	rjmp	.+80     	; 0x122 <__bad_interrupt>
  d2:	00 00       	nop
  d4:	26 c0       	rjmp	.+76     	; 0x122 <__bad_interrupt>
  d6:	00 00       	nop
  d8:	24 c0       	rjmp	.+72     	; 0x122 <__bad_interrupt>
  da:	00 00       	nop
  dc:	22 c0       	rjmp	.+68     	; 0x122 <__bad_interrupt>
  de:	00 00       	nop
  e0:	20 c0       	rjmp	.+64     	; 0x122 <__bad_interrupt>
	...

000000e4 <__ctors_end>:
  e4:	11 24       	eor	r1, r1
  e6:	1f be       	out	0x3f, r1	; 63
  e8:	cf ef       	ldi	r28, 0xFF	; 255
  ea:	d1 e2       	ldi	r29, 0x21	; 33
  ec:	de bf       	out	0x3e, r29	; 62
  ee:	cd bf       	out	0x3d, r28	; 61
  f0:	00 e0       	ldi	r16, 0x00	; 0
  f2:	0c bf       	out	0x3c, r16	; 60

000000f4 <__do_copy_data>:
  f4:	13 e0       	ldi	r17, 0x03	; 3
  f6:	a0 e0       	ldi	r26, 0x00	; 0
  f8:	b2 e0       	ldi	r27, 0x02	; 2
  fa:	e4 e2       	ldi	r30, 0x24	; 36
  fc:	f9 e0       	ldi	r31, 0x09	; 9
  fe:	00 e0       	ldi	r16, 0x00	; 0
 100:	0b bf       	out	0x3b, r16	; 59
 102:	02 c0       	rjmp	.+4      	; 0x108 <__do_copy_data+0x14>
 104:	07 90       	elpm	r0, Z+
 106:	0d 92       	st	X+, r0
 108:	a8 3a       	cpi	r26, 0xA8	; 168
 10a:	b1 07       	cpc	r27, r17
 10c:	d9 f7       	brne	.-10     	; 0x104 <__do_copy_data+0x10>

0000010e <__do_clear_bss>:
 10e:	24 e0       	ldi	r18, 0x04	; 4
 110:	a8 ea       	ldi	r26, 0xA8	; 168
 112:	b3 e0       	ldi	r27, 0x03	; 3
 114:	01 c0       	rjmp	.+2      	; 0x118 <.do_clear_bss_start>

00000116 <.do_clear_bss_loop>:
 116:	1d 92       	st	X+, r1

00000118 <.do_clear_bss_start>:
 118:	a2 34       	cpi	r26, 0x42	; 66
 11a:	b2 07       	cpc	r27, r18
 11c:	e1 f7       	brne	.-8      	; 0x116 <.do_clear_bss_loop>
 11e:	ab d0       	rcall	.+342    	; 0x276 <main>
 120:	ff c3       	rjmp	.+2046   	; 0x920 <_exit>

00000122 <__bad_interrupt>:
 122:	6e cf       	rjmp	.-292    	; 0x0 <__vectors>

00000124 <ADC_Read>:
#include "UART0.h"
#include <avr/io.h>
#include <inttypes.h>

uint8_t ADC_Read(uint8_t channel)
{
 124:	cf 93       	push	r28
	uint8_t data;
	uint8_t msb;
	DDRA   &= ~(1<<channel);			//Pin puerto A (ADC0) salida enable
 126:	91 b1       	in	r25, 0x01	; 1
 128:	21 e0       	ldi	r18, 0x01	; 1
 12a:	30 e0       	ldi	r19, 0x00	; 0
 12c:	08 2e       	mov	r0, r24
 12e:	02 c0       	rjmp	.+4      	; 0x134 <ADC_Read+0x10>
 130:	22 0f       	add	r18, r18
 132:	33 1f       	adc	r19, r19
 134:	0a 94       	dec	r0
 136:	e2 f7       	brpl	.-8      	; 0x130 <ADC_Read+0xc>
 138:	20 95       	com	r18
 13a:	29 23       	and	r18, r25
 13c:	21 b9       	out	0x01, r18	; 1
	ADMUX  |= (channel<<MUX0);
 13e:	ec e7       	ldi	r30, 0x7C	; 124
 140:	f0 e0       	ldi	r31, 0x00	; 0
 142:	90 81       	ld	r25, Z
 144:	89 2b       	or	r24, r25
 146:	80 83       	st	Z, r24
	ADCSRA |= (1<<ADSC);				//ADC start conversion
 148:	ea e7       	ldi	r30, 0x7A	; 122
 14a:	f0 e0       	ldi	r31, 0x00	; 0
 14c:	80 81       	ld	r24, Z
 14e:	80 64       	ori	r24, 0x40	; 64
 150:	80 83       	st	Z, r24
	data = ADCL;						//Tomando dato
 152:	c0 91 78 00 	lds	r28, 0x0078	; 0x800078 <__TEXT_REGION_LENGTH__+0x700078>
	msb  = ADCH;						//Leyendo ADCH para que ADC reciba nueva conversion
 156:	80 91 79 00 	lds	r24, 0x0079	; 0x800079 <__TEXT_REGION_LENGTH__+0x700079>
	UART0_puts("\n\n\rADC read exit");
 15a:	81 e0       	ldi	r24, 0x01	; 1
 15c:	92 e0       	ldi	r25, 0x02	; 2
 15e:	6d d3       	rcall	.+1754   	; 0x83a <UART0_puts>
	return data;
}
 160:	8c 2f       	mov	r24, r28
 162:	cf 91       	pop	r28
 164:	08 95       	ret

00000166 <ADC_MinMax>:
	ADMUX  = (1<<REFS0);				//AVCC with external capacitor at AREF
	ADCSRA = (1<<ADEN)|(7<<ADPS0);		//ADC enable, ADC interrupt enable, 128 PS
	ADC_Offset();
}
void ADC_MinMax( uint8_t channel )
{	//unsigned char cadena[10];
 166:	cf 93       	push	r28
 168:	c8 2f       	mov	r28, r24
	UART0_puts("\n\n\rPresione para capturar el minimo");
 16a:	82 e1       	ldi	r24, 0x12	; 18
 16c:	92 e0       	ldi	r25, 0x02	; 2
	UART0_getchar();
 16e:	65 d3       	rcall	.+1738   	; 0x83a <UART0_puts>
	UART0_puts("\n\rAntes de adc read");
 170:	ac d1       	rcall	.+856    	; 0x4ca <UART0_getchar>
 172:	86 e3       	ldi	r24, 0x36	; 54
	min = ADC_Read(channel);
 174:	92 e0       	ldi	r25, 0x02	; 2
 176:	61 d3       	rcall	.+1730   	; 0x83a <UART0_puts>
 178:	8c 2f       	mov	r24, r28
 17a:	d4 df       	rcall	.-88     	; 0x124 <ADC_Read>
 17c:	90 e0       	ldi	r25, 0x00	; 0
 17e:	90 93 ab 03 	sts	0x03AB, r25	; 0x8003ab <min+0x1>
	
	//itoa(cadena,min,10);
	//UART0_puts("\n\rMinimo capturado:");
	//UART0_puts(cadena);
	
	UART0_puts("\n\n\rPresione para capturar el maximo.");
 182:	80 93 aa 03 	sts	0x03AA, r24	; 0x8003aa <min>
	UART0_getchar();
 186:	8a e4       	ldi	r24, 0x4A	; 74
 188:	92 e0       	ldi	r25, 0x02	; 2
	max = ADC_Read(channel);
 18a:	57 d3       	rcall	.+1710   	; 0x83a <UART0_puts>
 18c:	9e d1       	rcall	.+828    	; 0x4ca <UART0_getchar>
 18e:	8c 2f       	mov	r24, r28
 190:	c9 df       	rcall	.-110    	; 0x124 <ADC_Read>
 192:	90 e0       	ldi	r25, 0x00	; 0
 194:	90 93 ad 03 	sts	0x03AD, r25	; 0x8003ad <max+0x1>
 198:	80 93 ac 03 	sts	0x03AC, r24	; 0x8003ac <max>
	//itoa(cadena,max,10);
	//UART0_puts("\n\rMaximo capturado:");
	//UART0_puts(max);
}
 19c:	cf 91       	pop	r28
 19e:	08 95       	ret

000001a0 <ADC_Offset>:
void ADC_Offset()
{
 1a0:	cf 93       	push	r28
 1a2:	df 93       	push	r29
 1a4:	cd b7       	in	r28, 0x3d	; 61
 1a6:	de b7       	in	r29, 0x3e	; 62
 1a8:	2a 97       	sbiw	r28, 0x0a	; 10
 1aa:	0f b6       	in	r0, 0x3f	; 63
 1ac:	f8 94       	cli
 1ae:	de bf       	out	0x3e, r29	; 62
 1b0:	0f be       	out	0x3f, r0	; 63
 1b2:	cd bf       	out	0x3d, r28	; 61
	unsigned char offsetChar[10];
	uint8_t msb;
	ADMUX  |= (31<<MUX0);				//MUX para tomar tierra
 1b4:	ec e7       	ldi	r30, 0x7C	; 124
 1b6:	f0 e0       	ldi	r31, 0x00	; 0
 1b8:	80 81       	ld	r24, Z
 1ba:	8f 61       	ori	r24, 0x1F	; 31
 1bc:	80 83       	st	Z, r24
	ADCSRA |= (1<<ADSC);				//ADC start conversion
 1be:	ea e7       	ldi	r30, 0x7A	; 122
 1c0:	f0 e0       	ldi	r31, 0x00	; 0
 1c2:	80 81       	ld	r24, Z
 1c4:	80 64       	ori	r24, 0x40	; 64
 1c6:	80 83       	st	Z, r24
	while(ADCSRA & 1<<ADSC);			//esperando el primer ciclo de conversion
 1c8:	80 81       	ld	r24, Z
 1ca:	86 fd       	sbrc	r24, 6
 1cc:	fd cf       	rjmp	.-6      	; 0x1c8 <ADC_Offset+0x28>
	offsetADC = ADCL;					//tomando offset
 1ce:	80 91 78 00 	lds	r24, 0x0078	; 0x800078 <__TEXT_REGION_LENGTH__+0x700078>
 1d2:	90 e0       	ldi	r25, 0x00	; 0
 1d4:	90 93 a9 03 	sts	0x03A9, r25	; 0x8003a9 <__data_end+0x1>
 1d8:	80 93 a8 03 	sts	0x03A8, r24	; 0x8003a8 <__data_end>
	msb = ADCH;						//Tomando dato
 1dc:	80 91 79 00 	lds	r24, 0x0079	; 0x800079 <__TEXT_REGION_LENGTH__+0x700079>
	itoa(offsetChar,offsetADC,10);
 1e0:	60 91 a8 03 	lds	r22, 0x03A8	; 0x8003a8 <__data_end>
 1e4:	70 91 a9 03 	lds	r23, 0x03A9	; 0x8003a9 <__data_end+0x1>
 1e8:	4a e0       	ldi	r20, 0x0A	; 10
 1ea:	ce 01       	movw	r24, r28
 1ec:	01 96       	adiw	r24, 0x01	; 1
 1ee:	7d d2       	rcall	.+1274   	; 0x6ea <itoa>
	UART0_puts("\n\rOffset capturado:");
 1f0:	8f e6       	ldi	r24, 0x6F	; 111
 1f2:	92 e0       	ldi	r25, 0x02	; 2
	UART0_puts(offsetChar);
 1f4:	22 d3       	rcall	.+1604   	; 0x83a <UART0_puts>
 1f6:	ce 01       	movw	r24, r28
 1f8:	01 96       	adiw	r24, 0x01	; 1
	
}
 1fa:	1f d3       	rcall	.+1598   	; 0x83a <UART0_puts>
 1fc:	2a 96       	adiw	r28, 0x0a	; 10
 1fe:	0f b6       	in	r0, 0x3f	; 63
 200:	f8 94       	cli
 202:	de bf       	out	0x3e, r29	; 62
 204:	0f be       	out	0x3f, r0	; 63
 206:	cd bf       	out	0x3d, r28	; 61
 208:	df 91       	pop	r29
 20a:	cf 91       	pop	r28
 20c:	08 95       	ret

0000020e <ADC_Ini>:
}
void ADC_Ini(void)
{
	/*  inicializa para 8 bits de resolución y habilita el ADC del microcontrolador de
	forma generica. Encontrar el desplazamiento (offset) de la medición y almacenarla.*/
	ADMUX  = (1<<REFS0);				//AVCC with external capacitor at AREF
 20e:	80 e4       	ldi	r24, 0x40	; 64
 210:	80 93 7c 00 	sts	0x007C, r24	; 0x80007c <__TEXT_REGION_LENGTH__+0x70007c>
	ADCSRA = (1<<ADEN)|(7<<ADPS0);		//ADC enable, ADC interrupt enable, 128 PS
 214:	87 e8       	ldi	r24, 0x87	; 135
 216:	80 93 7a 00 	sts	0x007A, r24	; 0x80007a <__TEXT_REGION_LENGTH__+0x70007a>
	ADC_Offset();
 21a:	c2 cf       	rjmp	.-124    	; 0x1a0 <ADC_Offset>
 21c:	08 95       	ret

0000021e <Timer2_Set_Volume>:
	UART0_puts("\n\rOffset capturado:");
	UART0_puts(offsetChar);
	
}
void Timer2_Set_Volume(uint8_t volume)
{
 21e:	cf 93       	push	r28
 220:	df 93       	push	r29
 222:	cd b7       	in	r28, 0x3d	; 61
 224:	de b7       	in	r29, 0x3e	; 62
 226:	64 97       	sbiw	r28, 0x14	; 20
 228:	0f b6       	in	r0, 0x3f	; 63
 22a:	f8 94       	cli
 22c:	de bf       	out	0x3e, r29	; 62
 22e:	0f be       	out	0x3f, r0	; 63
 230:	cd bf       	out	0x3d, r28	; 61
	/*Ajusta el ancho de pulso que es producido sobre la terminal OC2B. El rango del valor de
	entrada sera de 0 a 100.*/
	unsigned char volumenChar[20];
	
	OCR2B = (OCR2A*volume)/100;
 232:	40 91 b3 00 	lds	r20, 0x00B3	; 0x8000b3 <__TEXT_REGION_LENGTH__+0x7000b3>
 236:	28 2f       	mov	r18, r24
 238:	30 e0       	ldi	r19, 0x00	; 0
 23a:	42 9f       	mul	r20, r18
 23c:	c0 01       	movw	r24, r0
 23e:	43 9f       	mul	r20, r19
 240:	90 0d       	add	r25, r0
 242:	11 24       	eor	r1, r1
 244:	64 e6       	ldi	r22, 0x64	; 100
 246:	70 e0       	ldi	r23, 0x00	; 0
 248:	1a d3       	rcall	.+1588   	; 0x87e <__divmodhi4>
 24a:	60 93 b4 00 	sts	0x00B4, r22	; 0x8000b4 <__TEXT_REGION_LENGTH__+0x7000b4>
	itoa(volumenChar,volume,10);
 24e:	4a e0       	ldi	r20, 0x0A	; 10
 250:	b9 01       	movw	r22, r18
 252:	ce 01       	movw	r24, r28
 254:	01 96       	adiw	r24, 0x01	; 1
	UART0_puts("\n\rVolumen: ");
 256:	49 d2       	rcall	.+1170   	; 0x6ea <itoa>
 258:	83 e8       	ldi	r24, 0x83	; 131
	UART0_puts(volumenChar);
 25a:	92 e0       	ldi	r25, 0x02	; 2
 25c:	ee d2       	rcall	.+1500   	; 0x83a <UART0_puts>
 25e:	ce 01       	movw	r24, r28
 260:	01 96       	adiw	r24, 0x01	; 1
 262:	eb d2       	rcall	.+1494   	; 0x83a <UART0_puts>
 264:	64 96       	adiw	r28, 0x14	; 20
 266:	0f b6       	in	r0, 0x3f	; 63
 268:	f8 94       	cli
 26a:	de bf       	out	0x3e, r29	; 62
 26c:	0f be       	out	0x3f, r0	; 63
 26e:	cd bf       	out	0x3d, r28	; 61
 270:	df 91       	pop	r29
 272:	cf 91       	pop	r28
 274:	08 95       	ret

00000276 <main>:
	//and we're done
};

int main(void)
{
	UART0_Ini(0);
 276:	80 e0       	ldi	r24, 0x00	; 0
	UART0_AutoBaudRate();
	Timer0_Ini();
	ADC_Ini();
	UART0_putchar('m');
 278:	90 e0       	ldi	r25, 0x00	; 0
	UART0_getchar();
 27a:	74 d2       	rcall	.+1256   	; 0x764 <UART0_Ini>
	ADC_MinMax(PHOTORESISTOR);
 27c:	0b d1       	rcall	.+534    	; 0x494 <UART0_AutoBaudRate>
 27e:	25 d0       	rcall	.+74     	; 0x2ca <Timer0_Ini>
		if (UART0_available()){
			if(UART0_getchar() == 'p'){
				Timer2_Play(ImperialMarch,sizeof(ImperialMarch)/sizeof(struct note));
			}
		}
		Timer2_Set_Volume(ADC_Normalize(ADC_Read(PHOTORESISTOR)));
 280:	c6 df       	rcall	.-116    	; 0x20e <ADC_Ini>
	ADC_Ini();
	UART0_putchar('m');
	UART0_getchar();
	ADC_MinMax(PHOTORESISTOR);
	while(1){
		if (UART0_available()){
 282:	8d e6       	ldi	r24, 0x6D	; 109
 284:	8a d2       	rcall	.+1300   	; 0x79a <UART0_putchar>
 286:	21 d1       	rcall	.+578    	; 0x4ca <UART0_getchar>
			if(UART0_getchar() == 'p'){
 288:	80 e0       	ldi	r24, 0x00	; 0
 28a:	6d df       	rcall	.-294    	; 0x166 <ADC_MinMax>
 28c:	c4 e6       	ldi	r28, 0x64	; 100
				Timer2_Play(ImperialMarch,sizeof(ImperialMarch)/sizeof(struct note));
 28e:	fc d1       	rcall	.+1016   	; 0x688 <UART0_available>
 290:	88 23       	and	r24, r24
 292:	41 f0       	breq	.+16     	; 0x2a4 <main+0x2e>
 294:	1a d1       	rcall	.+564    	; 0x4ca <UART0_getchar>
 296:	80 37       	cpi	r24, 0x70	; 112
 298:	29 f4       	brne	.+10     	; 0x2a4 <main+0x2e>
			}
		}
		Timer2_Set_Volume(ADC_Normalize(ADC_Read(PHOTORESISTOR)));
 29a:	66 e4       	ldi	r22, 0x46	; 70
 29c:	70 e0       	ldi	r23, 0x00	; 0
 29e:	8f e8       	ldi	r24, 0x8F	; 143
 2a0:	92 e0       	ldi	r25, 0x02	; 2
 2a2:	ac d0       	rcall	.+344    	; 0x3fc <Timer2_Play>
 2a4:	80 e0       	ldi	r24, 0x00	; 0
 2a6:	3e df       	rcall	.-388    	; 0x124 <ADC_Read>
 2a8:	60 91 b0 03 	lds	r22, 0x03B0	; 0x8003b0 <max>
 2ac:	70 91 b1 03 	lds	r23, 0x03B1	; 0x8003b1 <max+0x1>
 2b0:	20 91 ae 03 	lds	r18, 0x03AE	; 0x8003ae <min>
 2b4:	30 91 af 03 	lds	r19, 0x03AF	; 0x8003af <min+0x1>
 2b8:	c8 9f       	mul	r28, r24
 2ba:	c0 01       	movw	r24, r0
 2bc:	11 24       	eor	r1, r1
 2be:	62 1b       	sub	r22, r18
	}
 2c0:	73 0b       	sbc	r23, r19
 2c2:	c9 d2       	rcall	.+1426   	; 0x856 <__udivmodhi4>
 2c4:	86 2f       	mov	r24, r22
 2c6:	ab df       	rcall	.-170    	; 0x21e <Timer2_Set_Volume>
 2c8:	e2 cf       	rjmp	.-60     	; 0x28e <main+0x18>

000002ca <Timer0_Ini>:

void Timer0_Ini ( void ){
	/* 	Permanece igual, ocasionando una interrupciÃƒÂ³n 
		cada 1 ms en modo CTC. */
	// 1ms: 0.001/(1/(16M/64) = 250 
	TCCR0A = (2<<WGM00);	//Iniciando CTC
 2ca:	82 e0       	ldi	r24, 0x02	; 2
 2cc:	84 bd       	out	0x24, r24	; 36
	TCCR0B = (3<<CS00);		//64PS
 2ce:	93 e0       	ldi	r25, 0x03	; 3
 2d0:	95 bd       	out	0x25, r25	; 37
	TCNT0  = 0;				//Iniciando contador
 2d2:	16 bc       	out	0x26, r1	; 38
	OCR0A  = 250-1;			//1ms tope
 2d4:	99 ef       	ldi	r25, 0xF9	; 249
 2d6:	97 bd       	out	0x27, r25	; 39
	TIMSK0 = (1<<OCIE0A);	//Habilitando interrupcion
 2d8:	80 93 6e 00 	sts	0x006E, r24	; 0x80006e <__TEXT_REGION_LENGTH__+0x70006e>
	sei();					//Habilitando interrupciones gobales
 2dc:	78 94       	sei
 2de:	08 95       	ret

000002e0 <Timer2_Freq_Gen>:
	/* 	Si "ticks" es mayor que 0 entonces, inicializa y habilita el Generador 
		de Frecuencia del Timer2 con el tope dado por "ticks".
		De lo contrario se requiere deshabilitar el Generador, generando de 
		esta forma el silencio (0 lÃƒÂ³gico).
		*/
	if(ticks > 0)
 2e0:	88 23       	and	r24, r24
 2e2:	51 f0       	breq	.+20     	; 0x2f8 <Timer2_Freq_Gen+0x18>
	{
		//DDRH = (1<<DDH6);
		TCCR2A = (3<<WGM20)|(2<<COM2B0);			//PWM OCR2A TOP
 2e4:	93 e2       	ldi	r25, 0x23	; 35
 2e6:	90 93 b0 00 	sts	0x00B0, r25	; 0x8000b0 <__TEXT_REGION_LENGTH__+0x7000b0>
		TCCR2B = (6<<CS20)|(1<<WGM22);				//256PS, COM2B0 non inverting
 2ea:	9e e0       	ldi	r25, 0x0E	; 14
 2ec:	90 93 b1 00 	sts	0x00B1, r25	; 0x8000b1 <__TEXT_REGION_LENGTH__+0x7000b1>
		OCR2A  = ticks -1 ;							//Tope en OCR2A
 2f0:	81 50       	subi	r24, 0x01	; 1
 2f2:	80 93 b3 00 	sts	0x00B3, r24	; 0x8000b3 <__TEXT_REGION_LENGTH__+0x7000b3>
 2f6:	08 95       	ret
	}else
	{
		//TCCR2B &= ~(6<<CS20);			//Deshabilitando PS para 0 logico
		TCCR2B = 0;						//Deshabilitando el generador
 2f8:	10 92 b1 00 	sts	0x00B1, r1	; 0x8000b1 <__TEXT_REGION_LENGTH__+0x7000b1>
 2fc:	08 95       	ret

000002fe <__vector_21>:
	OCR0A  = 250-1;			//1ms tope
	TIMSK0 = (1<<OCIE0A);	//Habilitando interrupcion
	sei();					//Habilitando interrupciones gobales
}

ISR(TIMER0_COMPA_vect){ 
 2fe:	1f 92       	push	r1
 300:	0f 92       	push	r0
 302:	0f b6       	in	r0, 0x3f	; 63
 304:	0f 92       	push	r0
 306:	11 24       	eor	r1, r1
 308:	0b b6       	in	r0, 0x3b	; 59
 30a:	0f 92       	push	r0
 30c:	2f 93       	push	r18
 30e:	3f 93       	push	r19
 310:	4f 93       	push	r20
 312:	5f 93       	push	r21
 314:	6f 93       	push	r22
 316:	7f 93       	push	r23
 318:	8f 93       	push	r24
 31a:	9f 93       	push	r25
 31c:	af 93       	push	r26
 31e:	bf 93       	push	r27
 320:	ef 93       	push	r30
 322:	ff 93       	push	r31
	/* 	CÃƒÂ³digo para actualizar bandera de segundos */
	static uint16_t mSeg;
	mSeg++;
 324:	80 91 b2 03 	lds	r24, 0x03B2	; 0x8003b2 <mSeg.1657>
 328:	90 91 b3 03 	lds	r25, 0x03B3	; 0x8003b3 <mSeg.1657+0x1>
 32c:	01 96       	adiw	r24, 0x01	; 1
 32e:	90 93 b3 03 	sts	0x03B3, r25	; 0x8003b3 <mSeg.1657+0x1>
 332:	80 93 b2 03 	sts	0x03B2, r24	; 0x8003b2 <mSeg.1657>
	
	/*	Agregar las instrucciones necesarias para reproducir
		la siguiente nota en el arreglo dependiendo de la duraciÃƒÂ³n, 
		e insertar los silencios entre cada nota. */
	if(mSeg >= delay)
 336:	20 91 b4 03 	lds	r18, 0x03B4	; 0x8003b4 <delay>
 33a:	30 91 b5 03 	lds	r19, 0x03B5	; 0x8003b5 <delay+0x1>
 33e:	82 17       	cp	r24, r18
 340:	93 07       	cpc	r25, r19
 342:	08 f4       	brcc	.+2      	; 0x346 <__vector_21+0x48>
 344:	48 c0       	rjmp	.+144    	; 0x3d6 <__vector_21+0xd8>
	{
		mSeg = 0;
 346:	10 92 b3 03 	sts	0x03B3, r1	; 0x8003b3 <mSeg.1657+0x1>
 34a:	10 92 b2 03 	sts	0x03B2, r1	; 0x8003b2 <mSeg.1657>
		if(cambio && cntNota != Fin)
 34e:	80 91 00 02 	lds	r24, 0x0200	; 0x800200 <__data_start>
 352:	88 23       	and	r24, r24
 354:	a9 f1       	breq	.+106    	; 0x3c0 <__vector_21+0xc2>
 356:	90 91 b9 03 	lds	r25, 0x03B9	; 0x8003b9 <cntNota>
 35a:	80 91 b8 03 	lds	r24, 0x03B8	; 0x8003b8 <Fin>
 35e:	98 17       	cp	r25, r24
 360:	79 f1       	breq	.+94     	; 0x3c0 <__vector_21+0xc2>
		{
			Timer2_Freq_Gen(TICKS(cancion[cntNota].freq));
 362:	80 91 b9 03 	lds	r24, 0x03B9	; 0x8003b9 <cntNota>
 366:	e0 91 bc 03 	lds	r30, 0x03BC	; 0x8003bc <cancion>
 36a:	f0 91 bd 03 	lds	r31, 0x03BD	; 0x8003bd <cancion+0x1>
 36e:	94 e0       	ldi	r25, 0x04	; 4
 370:	89 9f       	mul	r24, r25
 372:	e0 0d       	add	r30, r0
 374:	f1 1d       	adc	r31, r1
 376:	11 24       	eor	r1, r1
 378:	20 81       	ld	r18, Z
 37a:	31 81       	ldd	r19, Z+1	; 0x01
 37c:	40 e0       	ldi	r20, 0x00	; 0
 37e:	50 e0       	ldi	r21, 0x00	; 0
 380:	64 e2       	ldi	r22, 0x24	; 36
 382:	74 ef       	ldi	r23, 0xF4	; 244
 384:	80 e0       	ldi	r24, 0x00	; 0
 386:	90 e0       	ldi	r25, 0x00	; 0
 388:	8d d2       	rcall	.+1306   	; 0x8a4 <__divmodsi4>
 38a:	82 2f       	mov	r24, r18
 38c:	a9 df       	rcall	.-174    	; 0x2e0 <Timer2_Freq_Gen>
			cambio = 0;
 38e:	10 92 00 02 	sts	0x0200, r1	; 0x800200 <__data_start>
			delay = cancion[cntNota].delay;
 392:	80 91 b9 03 	lds	r24, 0x03B9	; 0x8003b9 <cntNota>
 396:	e0 91 bc 03 	lds	r30, 0x03BC	; 0x8003bc <cancion>
 39a:	f0 91 bd 03 	lds	r31, 0x03BD	; 0x8003bd <cancion+0x1>
 39e:	94 e0       	ldi	r25, 0x04	; 4
 3a0:	89 9f       	mul	r24, r25
 3a2:	e0 0d       	add	r30, r0
 3a4:	f1 1d       	adc	r31, r1
 3a6:	11 24       	eor	r1, r1
 3a8:	82 81       	ldd	r24, Z+2	; 0x02
 3aa:	93 81       	ldd	r25, Z+3	; 0x03
 3ac:	90 93 b5 03 	sts	0x03B5, r25	; 0x8003b5 <delay+0x1>
 3b0:	80 93 b4 03 	sts	0x03B4, r24	; 0x8003b4 <delay>
			cntNota++;
 3b4:	80 91 b9 03 	lds	r24, 0x03B9	; 0x8003b9 <cntNota>
 3b8:	8f 5f       	subi	r24, 0xFF	; 255
 3ba:	80 93 b9 03 	sts	0x03B9, r24	; 0x8003b9 <cntNota>
 3be:	0b c0       	rjmp	.+22     	; 0x3d6 <__vector_21+0xd8>
		}else
		{
			cambio = 1;
 3c0:	81 e0       	ldi	r24, 0x01	; 1
 3c2:	80 93 00 02 	sts	0x0200, r24	; 0x800200 <__data_start>
			Timer2_Freq_Gen(0);
 3c6:	80 e0       	ldi	r24, 0x00	; 0
 3c8:	8b df       	rcall	.-234    	; 0x2e0 <Timer2_Freq_Gen>
			delay = SILENCE;
 3ca:	8a e0       	ldi	r24, 0x0A	; 10
 3cc:	90 e0       	ldi	r25, 0x00	; 0
 3ce:	90 93 b5 03 	sts	0x03B5, r25	; 0x8003b5 <delay+0x1>
 3d2:	80 93 b4 03 	sts	0x03B4, r24	; 0x8003b4 <delay>
		}
	}		
}
 3d6:	ff 91       	pop	r31
 3d8:	ef 91       	pop	r30
 3da:	bf 91       	pop	r27
 3dc:	af 91       	pop	r26
 3de:	9f 91       	pop	r25
 3e0:	8f 91       	pop	r24
 3e2:	7f 91       	pop	r23
 3e4:	6f 91       	pop	r22
 3e6:	5f 91       	pop	r21
 3e8:	4f 91       	pop	r20
 3ea:	3f 91       	pop	r19
 3ec:	2f 91       	pop	r18
 3ee:	0f 90       	pop	r0
 3f0:	0b be       	out	0x3b, r0	; 59
 3f2:	0f 90       	pop	r0
 3f4:	0f be       	out	0x3f, r0	; 63
 3f6:	0f 90       	pop	r0
 3f8:	1f 90       	pop	r1
 3fa:	18 95       	reti

000003fc <Timer2_Play>:

void Timer2_Play(const struct note song[],unsigned int len)
{	
	/*	FunciÃƒÂ³n que establece las condiciones necesarias para que
		el generador recorra el arreglo de notas. */
	cancion = song;
 3fc:	90 93 bd 03 	sts	0x03BD, r25	; 0x8003bd <cancion+0x1>
 400:	80 93 bc 03 	sts	0x03BC, r24	; 0x8003bc <cancion>
	cntNota = 0;				//obteniendo principio de musica
 404:	10 92 b9 03 	sts	0x03B9, r1	; 0x8003b9 <cntNota>
	Fin = len;			//Obteniendo final de musica
 408:	60 93 b8 03 	sts	0x03B8, r22	; 0x8003b8 <Fin>
	volumen = 50;			//Volumen a la mitad
 40c:	82 e3       	ldi	r24, 0x32	; 50
 40e:	90 e0       	ldi	r25, 0x00	; 0
 410:	90 93 b7 03 	sts	0x03B7, r25	; 0x8003b7 <volumen+0x1>
 414:	80 93 b6 03 	sts	0x03B6, r24	; 0x8003b6 <volumen>
	DDRH |= (1<<DDH6);
 418:	e1 e0       	ldi	r30, 0x01	; 1
 41a:	f1 e0       	ldi	r31, 0x01	; 1
 41c:	80 81       	ld	r24, Z
 41e:	80 64       	ori	r24, 0x40	; 64
 420:	80 83       	st	Z, r24
 422:	08 95       	ret

00000424 <Timer2_Flag>:
	}
	base = 0;
}
uint8_t Timer2_Flag ( void )
{
	if( Flag == base ){
 424:	90 91 bb 03 	lds	r25, 0x03BB	; 0x8003bb <Flag>
 428:	80 91 ba 03 	lds	r24, 0x03BA	; 0x8003ba <base>
 42c:	98 13       	cpse	r25, r24
 42e:	04 c0       	rjmp	.+8      	; 0x438 <Timer2_Flag+0x14>
		base = 0;
 430:	10 92 ba 03 	sts	0x03BA, r1	; 0x8003ba <base>
		return 1;
 434:	81 e0       	ldi	r24, 0x01	; 1
 436:	08 95       	ret
	}
	else{
	
		return 0;
 438:	80 e0       	ldi	r24, 0x00	; 0
	}
}
 43a:	08 95       	ret

0000043c <__vector_13>:
ISR (TIMER2_COMPA_vect)
{ 
 43c:	1f 92       	push	r1
 43e:	0f 92       	push	r0
 440:	0f b6       	in	r0, 0x3f	; 63
 442:	0f 92       	push	r0
 444:	11 24       	eor	r1, r1
 446:	0b b6       	in	r0, 0x3b	; 59
 448:	0f 92       	push	r0
 44a:	2f 93       	push	r18
 44c:	3f 93       	push	r19
 44e:	4f 93       	push	r20
 450:	5f 93       	push	r21
 452:	6f 93       	push	r22
 454:	7f 93       	push	r23
 456:	8f 93       	push	r24
 458:	9f 93       	push	r25
 45a:	af 93       	push	r26
 45c:	bf 93       	push	r27
 45e:	ef 93       	push	r30
 460:	ff 93       	push	r31
	base++;
 462:	80 91 ba 03 	lds	r24, 0x03BA	; 0x8003ba <base>
 466:	8f 5f       	subi	r24, 0xFF	; 255
 468:	80 93 ba 03 	sts	0x03BA, r24	; 0x8003ba <base>
	if(Timer2_Flag())
	{
		//Clock_Update(Flag);
		//Clock_Display();
	}
 46c:	db df       	rcall	.-74     	; 0x424 <Timer2_Flag>
 46e:	ff 91       	pop	r31
 470:	ef 91       	pop	r30
 472:	bf 91       	pop	r27
 474:	af 91       	pop	r26
 476:	9f 91       	pop	r25
 478:	8f 91       	pop	r24
 47a:	7f 91       	pop	r23
 47c:	6f 91       	pop	r22
 47e:	5f 91       	pop	r21
 480:	4f 91       	pop	r20
 482:	3f 91       	pop	r19
 484:	2f 91       	pop	r18
 486:	0f 90       	pop	r0
 488:	0b be       	out	0x3b, r0	; 59
 48a:	0f 90       	pop	r0
 48c:	0f be       	out	0x3f, r0	; 63
 48e:	0f 90       	pop	r0
 490:	1f 90       	pop	r1
 492:	18 95       	reti

00000494 <UART0_AutoBaudRate>:
			*str--='\0';
			i--;
		}
	}while(c != 13);
	*str = '\0';
}
 494:	8e ef       	ldi	r24, 0xFE	; 254
 496:	8d b9       	out	0x0d, r24	; 13
 498:	82 e0       	ldi	r24, 0x02	; 2
 49a:	80 93 c0 00 	sts	0x00C0, r24	; 0x8000c0 <__TEXT_REGION_LENGTH__+0x7000c0>
 49e:	98 e1       	ldi	r25, 0x18	; 24
 4a0:	90 93 c1 00 	sts	0x00C1, r25	; 0x8000c1 <__TEXT_REGION_LENGTH__+0x7000c1>
 4a4:	96 e0       	ldi	r25, 0x06	; 6
 4a6:	90 93 c2 00 	sts	0x00C2, r25	; 0x8000c2 <__TEXT_REGION_LENGTH__+0x7000c2>
 4aa:	14 bc       	out	0x24, r1	; 36
 4ac:	85 bd       	out	0x25, r24	; 37
 4ae:	60 99       	sbic	0x0c, 0	; 12
 4b0:	fe cf       	rjmp	.-4      	; 0x4ae <UART0_AutoBaudRate+0x1a>
 4b2:	16 bc       	out	0x26, r1	; 38
 4b4:	60 9b       	sbis	0x0c, 0	; 12
 4b6:	fe cf       	rjmp	.-4      	; 0x4b4 <UART0_AutoBaudRate+0x20>
 4b8:	15 bc       	out	0x25, r1	; 37
 4ba:	86 b5       	in	r24, 0x26	; 38
 4bc:	90 e0       	ldi	r25, 0x00	; 0
 4be:	01 97       	sbiw	r24, 0x01	; 1
 4c0:	90 93 c5 00 	sts	0x00C5, r25	; 0x8000c5 <__TEXT_REGION_LENGTH__+0x7000c5>
 4c4:	80 93 c4 00 	sts	0x00C4, r24	; 0x8000c4 <__TEXT_REGION_LENGTH__+0x7000c4>
 4c8:	08 95       	ret

000004ca <UART0_getchar>:
 4ca:	ee ef       	ldi	r30, 0xFE	; 254
 4cc:	f3 e0       	ldi	r31, 0x03	; 3
 4ce:	af ef       	ldi	r26, 0xFF	; 255
 4d0:	b3 e0       	ldi	r27, 0x03	; 3
 4d2:	20 81       	ld	r18, Z
 4d4:	2f 73       	andi	r18, 0x3F	; 63
 4d6:	80 81       	ld	r24, Z
 4d8:	98 2f       	mov	r25, r24
 4da:	92 95       	swap	r25
 4dc:	96 95       	lsr	r25
 4de:	96 95       	lsr	r25
 4e0:	93 70       	andi	r25, 0x03	; 3
 4e2:	8c 91       	ld	r24, X
 4e4:	8f 70       	andi	r24, 0x0F	; 15
 4e6:	88 0f       	add	r24, r24
 4e8:	88 0f       	add	r24, r24
 4ea:	89 2b       	or	r24, r25
 4ec:	28 17       	cp	r18, r24
 4ee:	89 f3       	breq	.-30     	; 0x4d2 <UART0_getchar+0x8>
 4f0:	ae ef       	ldi	r26, 0xFE	; 254
 4f2:	b3 e0       	ldi	r27, 0x03	; 3
 4f4:	ec 91       	ld	r30, X
 4f6:	8e 2f       	mov	r24, r30
 4f8:	82 95       	swap	r24
 4fa:	86 95       	lsr	r24
 4fc:	86 95       	lsr	r24
 4fe:	83 70       	andi	r24, 0x03	; 3
 500:	e0 91 ff 03 	lds	r30, 0x03FF	; 0x8003ff <recepcion+0x41>
 504:	ef 70       	andi	r30, 0x0F	; 15
 506:	ee 0f       	add	r30, r30
 508:	ee 0f       	add	r30, r30
 50a:	e8 2b       	or	r30, r24
 50c:	81 e0       	ldi	r24, 0x01	; 1
 50e:	8e 0f       	add	r24, r30
 510:	8f 73       	andi	r24, 0x3F	; 63
 512:	28 2f       	mov	r18, r24
 514:	22 95       	swap	r18
 516:	22 0f       	add	r18, r18
 518:	22 0f       	add	r18, r18
 51a:	20 7c       	andi	r18, 0xC0	; 192
 51c:	9c 91       	ld	r25, X
 51e:	9f 73       	andi	r25, 0x3F	; 63
 520:	92 2b       	or	r25, r18
 522:	9c 93       	st	X, r25
 524:	86 95       	lsr	r24
 526:	86 95       	lsr	r24
 528:	11 96       	adiw	r26, 0x01	; 1
 52a:	9c 91       	ld	r25, X
 52c:	11 97       	sbiw	r26, 0x01	; 1
 52e:	90 7f       	andi	r25, 0xF0	; 240
 530:	89 2b       	or	r24, r25
 532:	11 96       	adiw	r26, 0x01	; 1
 534:	8c 93       	st	X, r24
 536:	f0 e0       	ldi	r31, 0x00	; 0
 538:	e2 54       	subi	r30, 0x42	; 66
 53a:	fc 4f       	sbci	r31, 0xFC	; 252
 53c:	80 81       	ld	r24, Z
 53e:	08 95       	ret

00000540 <__vector_25>:
 540:	1f 92       	push	r1
 542:	0f 92       	push	r0
 544:	0f b6       	in	r0, 0x3f	; 63
 546:	0f 92       	push	r0
 548:	11 24       	eor	r1, r1
 54a:	0b b6       	in	r0, 0x3b	; 59
 54c:	0f 92       	push	r0
 54e:	2f 93       	push	r18
 550:	3f 93       	push	r19
 552:	8f 93       	push	r24
 554:	9f 93       	push	r25
 556:	af 93       	push	r26
 558:	bf 93       	push	r27
 55a:	ef 93       	push	r30
 55c:	ff 93       	push	r31
 55e:	ee ef       	ldi	r30, 0xFE	; 254
 560:	f3 e0       	ldi	r31, 0x03	; 3
 562:	af ef       	ldi	r26, 0xFF	; 255
 564:	b3 e0       	ldi	r27, 0x03	; 3
 566:	20 81       	ld	r18, Z
 568:	2f 73       	andi	r18, 0x3F	; 63
 56a:	80 81       	ld	r24, Z
 56c:	98 2f       	mov	r25, r24
 56e:	92 95       	swap	r25
 570:	96 95       	lsr	r25
 572:	96 95       	lsr	r25
 574:	93 70       	andi	r25, 0x03	; 3
 576:	8c 91       	ld	r24, X
 578:	8f 70       	andi	r24, 0x0F	; 15
 57a:	88 0f       	add	r24, r24
 57c:	88 0f       	add	r24, r24
 57e:	89 2b       	or	r24, r25
 580:	30 e0       	ldi	r19, 0x00	; 0
 582:	90 e0       	ldi	r25, 0x00	; 0
 584:	01 97       	sbiw	r24, 0x01	; 1
 586:	28 17       	cp	r18, r24
 588:	39 07       	cpc	r19, r25
 58a:	69 f3       	breq	.-38     	; 0x566 <__vector_25+0x26>
 58c:	ae ef       	ldi	r26, 0xFE	; 254
 58e:	b3 e0       	ldi	r27, 0x03	; 3
 590:	ec 91       	ld	r30, X
 592:	ef 73       	andi	r30, 0x3F	; 63
 594:	81 e0       	ldi	r24, 0x01	; 1
 596:	8e 0f       	add	r24, r30
 598:	98 2f       	mov	r25, r24
 59a:	9f 73       	andi	r25, 0x3F	; 63
 59c:	8c 91       	ld	r24, X
 59e:	80 7c       	andi	r24, 0xC0	; 192
 5a0:	89 2b       	or	r24, r25
 5a2:	8c 93       	st	X, r24
 5a4:	80 91 c6 00 	lds	r24, 0x00C6	; 0x8000c6 <__TEXT_REGION_LENGTH__+0x7000c6>
 5a8:	f0 e0       	ldi	r31, 0x00	; 0
 5aa:	e2 54       	subi	r30, 0x42	; 66
 5ac:	fc 4f       	sbci	r31, 0xFC	; 252
 5ae:	80 83       	st	Z, r24
 5b0:	ff 91       	pop	r31
 5b2:	ef 91       	pop	r30
 5b4:	bf 91       	pop	r27
 5b6:	af 91       	pop	r26
 5b8:	9f 91       	pop	r25
 5ba:	8f 91       	pop	r24
 5bc:	3f 91       	pop	r19
 5be:	2f 91       	pop	r18
 5c0:	0f 90       	pop	r0
 5c2:	0b be       	out	0x3b, r0	; 59
 5c4:	0f 90       	pop	r0
 5c6:	0f be       	out	0x3f, r0	; 63
 5c8:	0f 90       	pop	r0
 5ca:	1f 90       	pop	r1
 5cc:	18 95       	reti

000005ce <__vector_26>:
 5ce:	1f 92       	push	r1
 5d0:	0f 92       	push	r0
 5d2:	0f b6       	in	r0, 0x3f	; 63
 5d4:	0f 92       	push	r0
 5d6:	11 24       	eor	r1, r1
 5d8:	0b b6       	in	r0, 0x3b	; 59
 5da:	0f 92       	push	r0
 5dc:	2f 93       	push	r18
 5de:	8f 93       	push	r24
 5e0:	9f 93       	push	r25
 5e2:	af 93       	push	r26
 5e4:	bf 93       	push	r27
 5e6:	ef 93       	push	r30
 5e8:	ff 93       	push	r31
 5ea:	e0 e4       	ldi	r30, 0x40	; 64
 5ec:	f4 e0       	ldi	r31, 0x04	; 4
 5ee:	20 81       	ld	r18, Z
 5f0:	2f 73       	andi	r18, 0x3F	; 63
 5f2:	80 81       	ld	r24, Z
 5f4:	98 2f       	mov	r25, r24
 5f6:	92 95       	swap	r25
 5f8:	96 95       	lsr	r25
 5fa:	96 95       	lsr	r25
 5fc:	93 70       	andi	r25, 0x03	; 3
 5fe:	80 91 41 04 	lds	r24, 0x0441	; 0x800441 <transmision+0x41>
 602:	8f 70       	andi	r24, 0x0F	; 15
 604:	88 0f       	add	r24, r24
 606:	88 0f       	add	r24, r24
 608:	89 2b       	or	r24, r25
 60a:	28 13       	cpse	r18, r24
 60c:	06 c0       	rjmp	.+12     	; 0x61a <__vector_26+0x4c>
 60e:	e1 ec       	ldi	r30, 0xC1	; 193
 610:	f0 e0       	ldi	r31, 0x00	; 0
 612:	80 81       	ld	r24, Z
 614:	8f 7d       	andi	r24, 0xDF	; 223
 616:	80 83       	st	Z, r24
 618:	29 c0       	rjmp	.+82     	; 0x66c <__vector_26+0x9e>
 61a:	a0 e4       	ldi	r26, 0x40	; 64
 61c:	b4 e0       	ldi	r27, 0x04	; 4
 61e:	ec 91       	ld	r30, X
 620:	8e 2f       	mov	r24, r30
 622:	82 95       	swap	r24
 624:	86 95       	lsr	r24
 626:	86 95       	lsr	r24
 628:	83 70       	andi	r24, 0x03	; 3
 62a:	e0 91 41 04 	lds	r30, 0x0441	; 0x800441 <transmision+0x41>
 62e:	ef 70       	andi	r30, 0x0F	; 15
 630:	ee 0f       	add	r30, r30
 632:	ee 0f       	add	r30, r30
 634:	e8 2b       	or	r30, r24
 636:	81 e0       	ldi	r24, 0x01	; 1
 638:	8e 0f       	add	r24, r30
 63a:	8f 73       	andi	r24, 0x3F	; 63
 63c:	28 2f       	mov	r18, r24
 63e:	22 95       	swap	r18
 640:	22 0f       	add	r18, r18
 642:	22 0f       	add	r18, r18
 644:	20 7c       	andi	r18, 0xC0	; 192
 646:	9c 91       	ld	r25, X
 648:	9f 73       	andi	r25, 0x3F	; 63
 64a:	92 2b       	or	r25, r18
 64c:	9c 93       	st	X, r25
 64e:	86 95       	lsr	r24
 650:	86 95       	lsr	r24
 652:	11 96       	adiw	r26, 0x01	; 1
 654:	9c 91       	ld	r25, X
 656:	11 97       	sbiw	r26, 0x01	; 1
 658:	90 7f       	andi	r25, 0xF0	; 240
 65a:	89 2b       	or	r24, r25
 65c:	11 96       	adiw	r26, 0x01	; 1
 65e:	8c 93       	st	X, r24
 660:	f0 e0       	ldi	r31, 0x00	; 0
 662:	e0 50       	subi	r30, 0x00	; 0
 664:	fc 4f       	sbci	r31, 0xFC	; 252
 666:	80 81       	ld	r24, Z
 668:	80 93 c6 00 	sts	0x00C6, r24	; 0x8000c6 <__TEXT_REGION_LENGTH__+0x7000c6>
 66c:	ff 91       	pop	r31
 66e:	ef 91       	pop	r30
 670:	bf 91       	pop	r27
 672:	af 91       	pop	r26
 674:	9f 91       	pop	r25
 676:	8f 91       	pop	r24
 678:	2f 91       	pop	r18
 67a:	0f 90       	pop	r0
 67c:	0b be       	out	0x3b, r0	; 59
 67e:	0f 90       	pop	r0
 680:	0f be       	out	0x3f, r0	; 63
 682:	0f 90       	pop	r0
 684:	1f 90       	pop	r1
 686:	18 95       	reti

00000688 <UART0_available>:
 688:	ee ef       	ldi	r30, 0xFE	; 254
 68a:	f3 e0       	ldi	r31, 0x03	; 3
 68c:	40 81       	ld	r20, Z
 68e:	4f 73       	andi	r20, 0x3F	; 63
 690:	20 81       	ld	r18, Z
 692:	82 2f       	mov	r24, r18
 694:	82 95       	swap	r24
 696:	86 95       	lsr	r24
 698:	86 95       	lsr	r24
 69a:	83 70       	andi	r24, 0x03	; 3
 69c:	20 91 ff 03 	lds	r18, 0x03FF	; 0x8003ff <recepcion+0x41>
 6a0:	2f 70       	andi	r18, 0x0F	; 15
 6a2:	22 0f       	add	r18, r18
 6a4:	22 0f       	add	r18, r18
 6a6:	28 2b       	or	r18, r24
 6a8:	30 e0       	ldi	r19, 0x00	; 0
 6aa:	21 50       	subi	r18, 0x01	; 1
 6ac:	31 09       	sbc	r19, r1
 6ae:	50 e0       	ldi	r21, 0x00	; 0
 6b0:	81 e0       	ldi	r24, 0x01	; 1
 6b2:	24 17       	cp	r18, r20
 6b4:	35 07       	cpc	r19, r21
 6b6:	09 f4       	brne	.+2      	; 0x6ba <UART0_available+0x32>
 6b8:	80 e0       	ldi	r24, 0x00	; 0
 6ba:	08 95       	ret

000006bc <BUFFER_INIT>:
 6bc:	ee ef       	ldi	r30, 0xFE	; 254
 6be:	f3 e0       	ldi	r31, 0x03	; 3
 6c0:	80 81       	ld	r24, Z
 6c2:	80 7c       	andi	r24, 0xC0	; 192
 6c4:	80 83       	st	Z, r24
 6c6:	80 81       	ld	r24, Z
 6c8:	8f 73       	andi	r24, 0x3F	; 63
 6ca:	80 83       	st	Z, r24
 6cc:	81 81       	ldd	r24, Z+1	; 0x01
 6ce:	80 7f       	andi	r24, 0xF0	; 240
 6d0:	81 83       	std	Z+1, r24	; 0x01
 6d2:	e0 e4       	ldi	r30, 0x40	; 64
 6d4:	f4 e0       	ldi	r31, 0x04	; 4
 6d6:	80 81       	ld	r24, Z
 6d8:	80 7c       	andi	r24, 0xC0	; 192
 6da:	80 83       	st	Z, r24
 6dc:	80 81       	ld	r24, Z
 6de:	8f 73       	andi	r24, 0x3F	; 63
 6e0:	80 83       	st	Z, r24
 6e2:	81 81       	ldd	r24, Z+1	; 0x01
 6e4:	80 7f       	andi	r24, 0xF0	; 240
 6e6:	81 83       	std	Z+1, r24	; 0x01
 6e8:	08 95       	ret

000006ea <itoa>:
 6ea:	0f 93       	push	r16
 6ec:	1f 93       	push	r17
 6ee:	cf 93       	push	r28
 6f0:	df 93       	push	r29
 6f2:	fc 01       	movw	r30, r24
 6f4:	9b 01       	movw	r18, r22
 6f6:	c0 e0       	ldi	r28, 0x00	; 0
 6f8:	d0 e0       	ldi	r29, 0x00	; 0
 6fa:	04 2f       	mov	r16, r20
 6fc:	10 e0       	ldi	r17, 0x00	; 0
 6fe:	02 c0       	rjmp	.+4      	; 0x704 <itoa+0x1a>
 700:	ec 01       	movw	r28, r24
 702:	fd 01       	movw	r30, r26
 704:	c9 01       	movw	r24, r18
 706:	b8 01       	movw	r22, r16
 708:	a6 d0       	rcall	.+332    	; 0x856 <__udivmodhi4>
 70a:	26 2f       	mov	r18, r22
 70c:	37 2f       	mov	r19, r23
 70e:	8a 30       	cpi	r24, 0x0A	; 10
 710:	91 05       	cpc	r25, r1
 712:	10 f0       	brcs	.+4      	; 0x718 <itoa+0x2e>
 714:	89 5c       	subi	r24, 0xC9	; 201
 716:	01 c0       	rjmp	.+2      	; 0x71a <itoa+0x30>
 718:	80 5d       	subi	r24, 0xD0	; 208
 71a:	df 01       	movw	r26, r30
 71c:	11 96       	adiw	r26, 0x01	; 1
 71e:	80 83       	st	Z, r24
 720:	ce 01       	movw	r24, r28
 722:	01 96       	adiw	r24, 0x01	; 1
 724:	21 15       	cp	r18, r1
 726:	31 05       	cpc	r19, r1
 728:	59 f7       	brne	.-42     	; 0x700 <itoa+0x16>
 72a:	11 82       	std	Z+1, r1	; 0x01
 72c:	a8 1b       	sub	r26, r24
 72e:	b9 0b       	sbc	r27, r25
 730:	20 97       	sbiw	r28, 0x00	; 0
 732:	99 f0       	breq	.+38     	; 0x75a <itoa+0x70>
 734:	fd 01       	movw	r30, r26
 736:	a8 0f       	add	r26, r24
 738:	b9 1f       	adc	r27, r25
 73a:	80 e0       	ldi	r24, 0x00	; 0
 73c:	90 e0       	ldi	r25, 0x00	; 0
 73e:	20 81       	ld	r18, Z
 740:	3e 91       	ld	r19, -X
 742:	23 17       	cp	r18, r19
 744:	11 f0       	breq	.+4      	; 0x74a <itoa+0x60>
 746:	30 83       	st	Z, r19
 748:	2c 93       	st	X, r18
 74a:	01 96       	adiw	r24, 0x01	; 1
 74c:	31 96       	adiw	r30, 0x01	; 1
 74e:	9e 01       	movw	r18, r28
 750:	28 1b       	sub	r18, r24
 752:	39 0b       	sbc	r19, r25
 754:	82 17       	cp	r24, r18
 756:	93 07       	cpc	r25, r19
 758:	90 f3       	brcs	.-28     	; 0x73e <itoa+0x54>
 75a:	df 91       	pop	r29
 75c:	cf 91       	pop	r28
 75e:	1f 91       	pop	r17
 760:	0f 91       	pop	r16
 762:	08 95       	ret

00000764 <UART0_Ini>:
 764:	22 e0       	ldi	r18, 0x02	; 2
 766:	20 93 c0 00 	sts	0x00C0, r18	; 0x8000c0 <__TEXT_REGION_LENGTH__+0x7000c0>
 76a:	28 e9       	ldi	r18, 0x98	; 152
 76c:	20 93 c1 00 	sts	0x00C1, r18	; 0x8000c1 <__TEXT_REGION_LENGTH__+0x7000c1>
 770:	26 e0       	ldi	r18, 0x06	; 6
 772:	20 93 c2 00 	sts	0x00C2, r18	; 0x8000c2 <__TEXT_REGION_LENGTH__+0x7000c2>
 776:	89 2b       	or	r24, r25
 778:	39 f4       	brne	.+14     	; 0x788 <UART0_Ini+0x24>
 77a:	8f ec       	ldi	r24, 0xCF	; 207
 77c:	90 e0       	ldi	r25, 0x00	; 0
 77e:	90 93 c5 00 	sts	0x00C5, r25	; 0x8000c5 <__TEXT_REGION_LENGTH__+0x7000c5>
 782:	80 93 c4 00 	sts	0x00C4, r24	; 0x8000c4 <__TEXT_REGION_LENGTH__+0x7000c4>
 786:	06 c0       	rjmp	.+12     	; 0x794 <UART0_Ini+0x30>
 788:	87 e6       	ldi	r24, 0x67	; 103
 78a:	90 e0       	ldi	r25, 0x00	; 0
 78c:	90 93 c5 00 	sts	0x00C5, r25	; 0x8000c5 <__TEXT_REGION_LENGTH__+0x7000c5>
 790:	80 93 c4 00 	sts	0x00C4, r24	; 0x8000c4 <__TEXT_REGION_LENGTH__+0x7000c4>
 794:	78 94       	sei
 796:	92 cf       	rjmp	.-220    	; 0x6bc <BUFFER_INIT>
 798:	08 95       	ret

0000079a <UART0_putchar>:
 79a:	e0 e4       	ldi	r30, 0x40	; 64
 79c:	f4 e0       	ldi	r31, 0x04	; 4
 79e:	a1 e4       	ldi	r26, 0x41	; 65
 7a0:	b4 e0       	ldi	r27, 0x04	; 4
 7a2:	40 81       	ld	r20, Z
 7a4:	4f 73       	andi	r20, 0x3F	; 63
 7a6:	20 81       	ld	r18, Z
 7a8:	92 2f       	mov	r25, r18
 7aa:	92 95       	swap	r25
 7ac:	96 95       	lsr	r25
 7ae:	96 95       	lsr	r25
 7b0:	93 70       	andi	r25, 0x03	; 3
 7b2:	2c 91       	ld	r18, X
 7b4:	2f 70       	andi	r18, 0x0F	; 15
 7b6:	22 0f       	add	r18, r18
 7b8:	22 0f       	add	r18, r18
 7ba:	29 2b       	or	r18, r25
 7bc:	50 e0       	ldi	r21, 0x00	; 0
 7be:	30 e0       	ldi	r19, 0x00	; 0
 7c0:	21 50       	subi	r18, 0x01	; 1
 7c2:	31 09       	sbc	r19, r1
 7c4:	42 17       	cp	r20, r18
 7c6:	53 07       	cpc	r21, r19
 7c8:	61 f3       	breq	.-40     	; 0x7a2 <UART0_putchar+0x8>
 7ca:	e0 e4       	ldi	r30, 0x40	; 64
 7cc:	f4 e0       	ldi	r31, 0x04	; 4
 7ce:	30 81       	ld	r19, Z
 7d0:	3f 73       	andi	r19, 0x3F	; 63
 7d2:	90 81       	ld	r25, Z
 7d4:	29 2f       	mov	r18, r25
 7d6:	22 95       	swap	r18
 7d8:	26 95       	lsr	r18
 7da:	26 95       	lsr	r18
 7dc:	23 70       	andi	r18, 0x03	; 3
 7de:	90 91 41 04 	lds	r25, 0x0441	; 0x800441 <transmision+0x41>
 7e2:	9f 70       	andi	r25, 0x0F	; 15
 7e4:	99 0f       	add	r25, r25
 7e6:	99 0f       	add	r25, r25
 7e8:	92 2b       	or	r25, r18
 7ea:	39 13       	cpse	r19, r25
 7ec:	15 c0       	rjmp	.+42     	; 0x818 <UART0_putchar+0x7e>
 7ee:	df 01       	movw	r26, r30
 7f0:	e0 81       	ld	r30, Z
 7f2:	ef 73       	andi	r30, 0x3F	; 63
 7f4:	91 e0       	ldi	r25, 0x01	; 1
 7f6:	9e 0f       	add	r25, r30
 7f8:	29 2f       	mov	r18, r25
 7fa:	2f 73       	andi	r18, 0x3F	; 63
 7fc:	9c 91       	ld	r25, X
 7fe:	90 7c       	andi	r25, 0xC0	; 192
 800:	92 2b       	or	r25, r18
 802:	9c 93       	st	X, r25
 804:	f0 e0       	ldi	r31, 0x00	; 0
 806:	e0 50       	subi	r30, 0x00	; 0
 808:	fc 4f       	sbci	r31, 0xFC	; 252
 80a:	80 83       	st	Z, r24
 80c:	e1 ec       	ldi	r30, 0xC1	; 193
 80e:	f0 e0       	ldi	r31, 0x00	; 0
 810:	80 81       	ld	r24, Z
 812:	80 62       	ori	r24, 0x20	; 32
 814:	80 83       	st	Z, r24
 816:	08 95       	ret
 818:	a0 e4       	ldi	r26, 0x40	; 64
 81a:	b4 e0       	ldi	r27, 0x04	; 4
 81c:	ec 91       	ld	r30, X
 81e:	ef 73       	andi	r30, 0x3F	; 63
 820:	91 e0       	ldi	r25, 0x01	; 1
 822:	9e 0f       	add	r25, r30
 824:	29 2f       	mov	r18, r25
 826:	2f 73       	andi	r18, 0x3F	; 63
 828:	9c 91       	ld	r25, X
 82a:	90 7c       	andi	r25, 0xC0	; 192
 82c:	92 2b       	or	r25, r18
 82e:	9c 93       	st	X, r25
 830:	f0 e0       	ldi	r31, 0x00	; 0
 832:	e0 50       	subi	r30, 0x00	; 0
 834:	fc 4f       	sbci	r31, 0xFC	; 252
 836:	80 83       	st	Z, r24
 838:	08 95       	ret

0000083a <UART0_puts>:
	{
		transmision.buffer[transmision.in_idx++] = data;  /*ingresa el dato en la cabeza y aumenta*/
	}
}
void UART0_puts(char *str)
{
 83a:	cf 93       	push	r28
 83c:	df 93       	push	r29
 83e:	ec 01       	movw	r28, r24
	while(*str)
 840:	88 81       	ld	r24, Y
 842:	88 23       	and	r24, r24
 844:	29 f0       	breq	.+10     	; 0x850 <UART0_puts+0x16>
	UART0_putchar(*str++);
 846:	21 96       	adiw	r28, 0x01	; 1
		transmision.buffer[transmision.in_idx++] = data;  /*ingresa el dato en la cabeza y aumenta*/
	}
}
void UART0_puts(char *str)
{
	while(*str)
 848:	a8 df       	rcall	.-176    	; 0x79a <UART0_putchar>
 84a:	89 91       	ld	r24, Y+
 84c:	81 11       	cpse	r24, r1
	UART0_putchar(*str++);
 84e:	fc cf       	rjmp	.-8      	; 0x848 <UART0_puts+0xe>
 850:	df 91       	pop	r29
 852:	cf 91       	pop	r28
 854:	08 95       	ret

00000856 <__udivmodhi4>:
 856:	aa 1b       	sub	r26, r26
 858:	bb 1b       	sub	r27, r27
 85a:	51 e1       	ldi	r21, 0x11	; 17
 85c:	07 c0       	rjmp	.+14     	; 0x86c <__udivmodhi4_ep>

0000085e <__udivmodhi4_loop>:
 85e:	aa 1f       	adc	r26, r26
 860:	bb 1f       	adc	r27, r27
 862:	a6 17       	cp	r26, r22
 864:	b7 07       	cpc	r27, r23
 866:	10 f0       	brcs	.+4      	; 0x86c <__udivmodhi4_ep>
 868:	a6 1b       	sub	r26, r22
 86a:	b7 0b       	sbc	r27, r23

0000086c <__udivmodhi4_ep>:
 86c:	88 1f       	adc	r24, r24
 86e:	99 1f       	adc	r25, r25
 870:	5a 95       	dec	r21
 872:	a9 f7       	brne	.-22     	; 0x85e <__udivmodhi4_loop>
 874:	80 95       	com	r24
 876:	90 95       	com	r25
 878:	bc 01       	movw	r22, r24
 87a:	cd 01       	movw	r24, r26
 87c:	08 95       	ret

0000087e <__divmodhi4>:
 87e:	97 fb       	bst	r25, 7
 880:	07 2e       	mov	r0, r23
 882:	16 f4       	brtc	.+4      	; 0x888 <__divmodhi4+0xa>
 884:	00 94       	com	r0
 886:	06 d0       	rcall	.+12     	; 0x894 <__divmodhi4_neg1>
 888:	77 fd       	sbrc	r23, 7
 88a:	08 d0       	rcall	.+16     	; 0x89c <__divmodhi4_neg2>
 88c:	e4 df       	rcall	.-56     	; 0x856 <__udivmodhi4>
 88e:	07 fc       	sbrc	r0, 7
 890:	05 d0       	rcall	.+10     	; 0x89c <__divmodhi4_neg2>
 892:	3e f4       	brtc	.+14     	; 0x8a2 <__divmodhi4_exit>

00000894 <__divmodhi4_neg1>:
 894:	90 95       	com	r25
 896:	81 95       	neg	r24
 898:	9f 4f       	sbci	r25, 0xFF	; 255
 89a:	08 95       	ret

0000089c <__divmodhi4_neg2>:
 89c:	70 95       	com	r23
 89e:	61 95       	neg	r22
 8a0:	7f 4f       	sbci	r23, 0xFF	; 255

000008a2 <__divmodhi4_exit>:
 8a2:	08 95       	ret

000008a4 <__divmodsi4>:
 8a4:	05 2e       	mov	r0, r21
 8a6:	97 fb       	bst	r25, 7
 8a8:	16 f4       	brtc	.+4      	; 0x8ae <__divmodsi4+0xa>
 8aa:	00 94       	com	r0
 8ac:	0f d0       	rcall	.+30     	; 0x8cc <__negsi2>
 8ae:	57 fd       	sbrc	r21, 7
 8b0:	05 d0       	rcall	.+10     	; 0x8bc <__divmodsi4_neg2>
 8b2:	14 d0       	rcall	.+40     	; 0x8dc <__udivmodsi4>
 8b4:	07 fc       	sbrc	r0, 7
 8b6:	02 d0       	rcall	.+4      	; 0x8bc <__divmodsi4_neg2>
 8b8:	46 f4       	brtc	.+16     	; 0x8ca <__divmodsi4_exit>
 8ba:	08 c0       	rjmp	.+16     	; 0x8cc <__negsi2>

000008bc <__divmodsi4_neg2>:
 8bc:	50 95       	com	r21
 8be:	40 95       	com	r20
 8c0:	30 95       	com	r19
 8c2:	21 95       	neg	r18
 8c4:	3f 4f       	sbci	r19, 0xFF	; 255
 8c6:	4f 4f       	sbci	r20, 0xFF	; 255
 8c8:	5f 4f       	sbci	r21, 0xFF	; 255

000008ca <__divmodsi4_exit>:
 8ca:	08 95       	ret

000008cc <__negsi2>:
 8cc:	90 95       	com	r25
 8ce:	80 95       	com	r24
 8d0:	70 95       	com	r23
 8d2:	61 95       	neg	r22
 8d4:	7f 4f       	sbci	r23, 0xFF	; 255
 8d6:	8f 4f       	sbci	r24, 0xFF	; 255
 8d8:	9f 4f       	sbci	r25, 0xFF	; 255
 8da:	08 95       	ret

000008dc <__udivmodsi4>:
 8dc:	a1 e2       	ldi	r26, 0x21	; 33
 8de:	1a 2e       	mov	r1, r26
 8e0:	aa 1b       	sub	r26, r26
 8e2:	bb 1b       	sub	r27, r27
 8e4:	fd 01       	movw	r30, r26
 8e6:	0d c0       	rjmp	.+26     	; 0x902 <__udivmodsi4_ep>

000008e8 <__udivmodsi4_loop>:
 8e8:	aa 1f       	adc	r26, r26
 8ea:	bb 1f       	adc	r27, r27
 8ec:	ee 1f       	adc	r30, r30
 8ee:	ff 1f       	adc	r31, r31
 8f0:	a2 17       	cp	r26, r18
 8f2:	b3 07       	cpc	r27, r19
 8f4:	e4 07       	cpc	r30, r20
 8f6:	f5 07       	cpc	r31, r21
 8f8:	20 f0       	brcs	.+8      	; 0x902 <__udivmodsi4_ep>
 8fa:	a2 1b       	sub	r26, r18
 8fc:	b3 0b       	sbc	r27, r19
 8fe:	e4 0b       	sbc	r30, r20
 900:	f5 0b       	sbc	r31, r21

00000902 <__udivmodsi4_ep>:
 902:	66 1f       	adc	r22, r22
 904:	77 1f       	adc	r23, r23
 906:	88 1f       	adc	r24, r24
 908:	99 1f       	adc	r25, r25
 90a:	1a 94       	dec	r1
 90c:	69 f7       	brne	.-38     	; 0x8e8 <__udivmodsi4_loop>
 90e:	60 95       	com	r22
 910:	70 95       	com	r23
 912:	80 95       	com	r24
 914:	90 95       	com	r25
 916:	9b 01       	movw	r18, r22
 918:	ac 01       	movw	r20, r24
 91a:	bd 01       	movw	r22, r26
 91c:	cf 01       	movw	r24, r30
 91e:	08 95       	ret

00000920 <_exit>:
 920:	f8 94       	cli

00000922 <__stop_program>:
 922:	ff cf       	rjmp	.-2      	; 0x922 <__stop_program>
